Certificate:
    Data:
        Version: 3 (0x2)
        Serial Number: 4097 (0x1001)
    Signature Algorithm: sha1WithRSAEncryption
        Issuer: C=US, ST=CA, L=San Francisco, O=Droplet Test Fake CA, OU=Fake Certs Department, CN=Fake CA R Us/emailAddress=nobody@nowhere.com
        Validity
            Not Before: Oct 28 18:02:08 2013 GMT
            Not After : Oct 26 18:02:08 2023 GMT
        Subject: C=US, ST=CA, L=San Francisco, O=Droplet Client Test, OU=Droplet Client Test, CN=Fake Client R Us/emailAddress=nobody@nowhere.com
        Subject Public Key Info:
            Public Key Algorithm: rsaEncryption
                Public-Key: (2048 bit)
                Modulus:
                    00:a9:99:a6:27:6b:2e:24:83:37:0c:54:a7:f2:91:
                    35:5e:30:11:6f:a9:9a:69:35:b6:a2:8e:a5:e4:5b:
                    00:ec:60:1c:fc:69:03:7e:dc:47:80:57:41:ea:31:
                    38:2b:b7:85:33:a1:a3:ba:20:6f:08:c4:10:de:e7:
                    56:de:1b:3d:20:22:f2:41:22:5d:e0:c4:c2:8a:e5:
                    75:f0:bf:9a:1b:fb:00:bc:d9:41:53:ea:73:56:cc:
                    c4:4f:35:d0:db:1e:f2:9c:e1:6c:07:22:ce:42:a4:
                    e0:e6:ff:d1:3b:a3:39:87:b7:3b:a4:ae:4b:92:ab:
                    f8:31:42:a0:9b:f0:53:4f:29:19:0c:ca:e5:be:0b:
                    c9:18:fa:aa:59:c2:b5:3a:46:b4:a9:99:00:4c:59:
                    06:12:c1:74:13:d1:78:46:a2:4f:5c:d7:a8:8e:cd:
                    96:2c:bb:79:7c:1d:67:92:aa:d7:23:15:e0:df:a1:
                    ac:c4:fb:f9:c9:a8:f1:6d:56:73:ee:94:eb:85:99:
                    f5:e8:63:f8:6a:28:38:fa:38:1e:0d:c4:4f:d4:e8:
                    8e:b2:0f:9b:c2:6a:d9:a4:74:fb:38:64:8e:79:6f:
                    9a:38:b1:fb:1d:80:4f:59:ed:5b:4a:7e:42:8e:1e:
                    0a:2c:df:8c:57:d3:28:0f:76:dd:3b:ca:06:7d:a3:
                    98:a9
                Exponent: 65537 (0x10001)
        X509v3 extensions:
            X509v3 Basic Constraints: 
                CA:FALSE
            Netscape Comment: 
                OpenSSL Generated Certificate
            X509v3 Subject Key Identifier: 
                CE:E2:7A:D6:C0:EB:25:2C:CC:45:39:E9:7A:0E:15:A1:C2:29:4D:F5
            X509v3 Authority Key Identifier: 
                keyid:77:C2:5D:2D:F6:95:84:8E:20:35:B7:2F:56:45:2A:49:A1:AC:0D:6F

    Signature Algorithm: sha1WithRSAEncryption
         8c:83:27:20:d8:7f:2e:bf:49:b8:ac:db:51:89:41:4a:ba:e4:
         c6:a8:68:20:90:34:9b:f2:0f:78:27:f6:f6:72:8e:5d:78:5c:
         25:58:e1:0f:83:05:06:50:ee:ce:7a:8b:73:29:2d:f7:49:0c:
         af:e5:6b:9f:25:82:87:b9:07:00:3b:99:5f:ad:84:ba:86:d5:
         95:7e:6d:d7:47:9b:b9:a3:d2:24:fd:76:04:86:3d:d3:ef:3a:
         55:67:d1:e7:7e:fc:82:54:d6:04:ef:80:7c:0c:d7:2a:a1:1e:
         dc:3d:e7:81:c0:5d:a5:9f:69:2e:23:75:35:cc:ba:7c:cc:63:
         bd:d9:17:9d:fb:37:01:e8:98:b5:b4:a4:36:9a:4f:16:f8:3f:
         a2:51:6c:4e:c5:26:20:d3:f3:3e:39:5a:65:11:25:da:f4:11:
         cf:cf:83:a7:3f:bf:bc:3c:1a:7a:9d:cc:28:70:e5:ae:76:e0:
         14:8e:4b:21:e4:d6:50:21:1f:33:1f:81:b4:ff:25:0d:ac:98:
         1f:6b:64:2d:91:85:fe:38:d4:1d:bf:5b:6f:03:3c:38:2c:79:
         52:d5:fe:73:1d:24:24:c5:73:a0:28:10:69:a6:9b:96:d4:1c:
         ca:9e:87:d8:da:5a:b6:98:6c:85:28:73:31:04:26:fb:a5:f7:
         47:53:14:45
-----BEGIN CERTIFICATE-----
MIIEUDCCAzigAwIBAgICEAEwDQYJKoZIhvcNAQEFBQAwgasxCzAJBgNVBAYTAlVT
MQswCQYDVQQIDAJDQTEWMBQGA1UEBwwNU2FuIEZyYW5jaXNjbzEdMBsGA1UECgwU
RHJvcGxldCBUZXN0IEZha2UgQ0ExHjAcBgNVBAsMFUZha2UgQ2VydHMgRGVwYXJ0
bWVudDEVMBMGA1UEAwwMRmFrZSBDQSBSIFVzMSEwHwYJKoZIhvcNAQkBFhJub2Jv
ZHlAbm93aGVyZS5jb20wHhcNMTMxMDI4MTgwMjA4WhcNMjMxMDI2MTgwMjA4WjCB
rDELMAkGA1UEBhMCVVMxCzAJBgNVBAgMAkNBMRYwFAYDVQQHDA1TYW4gRnJhbmNp
c2NvMRwwGgYDVQQKDBNEcm9wbGV0IENsaWVudCBUZXN0MRwwGgYDVQQLDBNEcm9w
bGV0IENsaWVudCBUZXN0MRkwFwYDVQQDDBBGYWtlIENsaWVudCBSIFVzMSEwHwYJ
KoZIhvcNAQkBFhJub2JvZHlAbm93aGVyZS5jb20wggEiMA0GCSqGSIb3DQEBAQUA
A4IBDwAwggEKAoIBAQCpmaYnay4kgzcMVKfykTVeMBFvqZppNbaijqXkWwDsYBz8
aQN+3EeAV0HqMTgrt4UzoaO6IG8IxBDe51beGz0gIvJBIl3gxMKK5XXwv5ob+wC8
2UFT6nNWzMRPNdDbHvKc4WwHIs5CpODm/9E7ozmHtzukrkuSq/gxQqCb8FNPKRkM
yuW+C8kY+qpZwrU6RrSpmQBMWQYSwXQT0XhGok9c16iOzZYsu3l8HWeSqtcjFeDf
oazE+/nJqPFtVnPulOuFmfXoY/hqKDj6OB4NxE/U6I6yD5vCatmkdPs4ZI55b5o4
sfsdgE9Z7VtKfkKOHgos34xX0ygPdt07ygZ9o5ipAgMBAAGjezB5MAkGA1UdEwQC
MAAwLAYJYIZIAYb4QgENBB8WHU9wZW5TU0wgR2VuZXJhdGVkIENlcnRpZmljYXRl
MB0GA1UdDgQWBBTO4nrWwOslLMxFOel6DhWhwilN9TAfBgNVHSMEGDAWgBR3wl0t
9pWEjiA1ty9WRSpJoawNbzANBgkqhkiG9w0BAQUFAAOCAQEAjIMnINh/Lr9JuKzb
UYlBSrrkxqhoIJA0m/IPeCf29nKOXXhcJVjhD4MFBlDuznqLcykt90kMr+VrnyWC
h7kHADuZX62EuobVlX5t10ebuaPSJP12BIY90+86VWfR5378glTWBO+AfAzXKqEe
3D3ngcBdpZ9pLiN1Ncy6fMxjvdkXnfs3AeiYtbSkNppPFvg/olFsTsUmINPzPjla
ZREl2vQRz8+Dpz+/vDwaep3MKHDlrnbgFI5LIeTWUCEfMx+BtP8lDayYH2tkLZGF
/jjUHb9bbwM8OCx5UtX+cx0kJMVzoCgQaaabltQcyp6H2NpatphshShzMQQm+6X3
R1MURQ==
-----END CERTIFICATE-----
